target datalayout = "e-m:e-p270:32:32-p271:32:32-p272:64:64-i64:64-i128:128-f80:128-n8:16:32:64-S128"
target triple = "x86_64-unknown-linux-gnu"

%"class.sat::literal" = type { i32 }
%"class.sat::parallel::vector_pool" = type { %class.svector, i32, i32, %class.svector, %class.svector.0 }
%class.svector = type { %class.vector }
%class.vector = type { ptr }
%class.svector.0 = type { %class.vector.1 }
%class.vector.1 = type { ptr }
%"class.sat::parallel" = type { %class.svector.2, %class.hashtable, %class.svector.2, %"class.sat::parallel::vector_pool", %"class.std::mutex", i32, %class.scoped_ptr, i8, %class.svector.4, %struct.scoped_limits, %class.vector.6, %class.ptr_vector }
%class.hashtable = type { %class.core_hashtable.base, [4 x i8] }
%class.core_hashtable.base = type <{ ptr, i32, i32, i32 }>
%class.svector.2 = type { %class.vector.3 }
%class.vector.3 = type { ptr }
%"class.std::mutex" = type { %"class.std::__mutex_base" }
%"class.std::__mutex_base" = type { %union.pthread_mutex_t }
%union.pthread_mutex_t = type { %struct.__pthread_mutex_s }
%struct.__pthread_mutex_s = type { i32, i32, i32, i32, i32, i16, i16, %struct.__pthread_internal_list }
%struct.__pthread_internal_list = type { ptr, ptr }
%class.scoped_ptr = type { ptr }
%class.svector.4 = type { %class.vector.5 }
%class.vector.5 = type { ptr }
%struct.scoped_limits = type <{ ptr, i32, [4 x i8] }>
%class.vector.6 = type { ptr }
%class.ptr_vector = type { %class.vector.7 }
%class.vector.7 = type { ptr }
%"class.sat::solver_core" = type { ptr, ptr }
%class.symbol = type { ptr }
%"class.sat::solver" = type { %"class.sat::solver_core", i8, [7 x i8], %"struct.sat::config", %"struct.sat::stats", %class.scoped_ptr.8, %class.scoped_ptr.9, ptr, %"class.sat::drat", [2 x %"class.sat::clause_allocator"], i8, %class.random_gen, %"class.sat::cleaner", %class.svector.21, %"class.sat::model_converter", i8, %"class.sat::simplifier", %"class.sat::scc", %"class.sat::asymm_branch", %"class.sat::probing", i8, [7 x i8], %"class.sat::mus", %"class.sat::binspr", i8, i8, [6 x i8], %"class.sat::justification", %"class.sat::literal", %class.ptr_vector.28, %class.ptr_vector.28, i32, %class.svector, %class.svector, %class.svector, %class.svector, %class.vector.45, %class.svector.21, %class.svector.46, %class.svector.0, %class.svector.0, %class.svector.0, %class.svector.0, %class.svector.0, %class.svector, %class.svector, i32, %class.svector.2, %class.svector, i32, %class.svector.48, %class.svector.48, %class.svector.48, %class.svector.48, %class.svector.48, i32, double, %class.svector.0, %class.svector.0, %class.svector.0, %class.svector.32, i32, i32, i32, i32, i32, i32, %"struct.sat::backoff", i32, i32, %"struct.sat::backoff", %"struct.sat::backoff", %class.var_queue, i32, i32, i32, %class.ema, %class.ema, %class.ema, %class.ema, %class.ema, %class.svector.2, %class.svector.34, %"class.std::__cxx11::basic_string", i8, %class.visit_helper, %class.svector.50, %class.scoped_limit_trail, %class.stopwatch, %class.params_ref, %"struct.sat::no_drat_params", %class.scoped_ptr, %class.svector.2, %"class.sat::literal_set", %"class.sat::literal_set", %class.svector.2, i32, i32, i32, i32, i8, ptr, ptr, %class.statistics, i32, i32, i32, i32, i8, i32, i32, i32, i32, i32, i32, i32, double, i32, double, i8, i8, %class.svector.2, i8, %class.svector.48, i32, i32, i32, %class.svector.2, %class.svector.2, %class.svector.32, %class.svector, %class.approx_set_tpl, %class.svector.2, %class.svector.2, %class.vector.20, %class.svector.2, %class.svector.42, %class.u_map, %class.svector.2 }
%"struct.sat::config" = type <{ i64, i32, i32, i32, i8, [3 x i8], i32, i32, double, i32, i8, [3 x i8], i32, i8, [3 x i8], i32, [4 x i8], double, double, i32, i32, double, double, i32, [4 x i8], %class.symbol, double, i32, i32, i8, [3 x i8], i32, i32, i8, [3 x i8], i32, i8, [3 x i8], i32, i8, [3 x i8], i32, i8, i8, i8, i8, i32, i8, i8, i8, i8, i8, i8, i8, i8, i32, i8, i8, i8, i8, i32, double, i32, [4 x i8], double, double, double, double, i32, i8, i8, [2 x i8], double, i8, i8, [2 x i8], i32, double, i32, i32, i32, i32, i32, i32, i32, i32, i8, i8, i8, i8, i32, i32, i8, i8, i8, i8, i8, i8, i8, [5 x i8], %class.symbol, i8, i8, i8, i8, i8, i8, [2 x i8], i32, i32, i32, i8, [3 x i8], double, double, double, double, double, i8, [7 x i8] }>
%"struct.sat::stats" = type { i32, i32, i32, i32, i32, i32, i32, i32, i32, i32, i32, i32, i32, i32, i32, i32, i32, i32, i32, i32, i32 }
%class.scoped_ptr.8 = type { ptr }
%class.scoped_ptr.9 = type { ptr }
%"class.sat::drat" = type { ptr, %class.svector.10, ptr, %"class.sat::clause_allocator", ptr, ptr, %class.svector.16, %class.svector.18, %class.vector.20, %class.svector.21, i8, i8, i8, i8, i8, %"struct.sat::drat::stats" }
%class.svector.10 = type { %class.vector.11 }
%class.vector.11 = type { ptr }
%"class.sat::clause_allocator" = type { %class.sat_allocator, %class.id_gen }
%class.sat_allocator = type { ptr, i64, %class.ptr_vector.12, ptr, [65 x %class.ptr_vector.14] }
%class.ptr_vector.12 = type { %class.vector.13 }
%class.vector.13 = type { ptr }
%class.ptr_vector.14 = type { %class.vector.15 }
%class.vector.15 = type { ptr }
%class.id_gen = type { i32, %class.svector }
%class.svector.16 = type { %class.vector.17 }
%class.vector.17 = type { ptr }
%class.svector.18 = type { %class.vector.19 }
%class.vector.19 = type { ptr }
%"struct.sat::drat::stats" = type { i32, i32, i32, i32 }
%class.random_gen = type { i32 }
%"class.sat::cleaner" = type { ptr, i32, i32, i32, i32 }
%"class.sat::model_converter" = type { %class.vector.23, i32, %class.svector.0, ptr, %class.svector.24 }
%class.vector.23 = type { ptr }
%class.svector.24 = type { %class.vector.25 }
%class.vector.25 = type { ptr }
%"class.sat::simplifier" = type { ptr, i32, %"class.sat::use_list", %"class.sat::ext_use_list", %"class.sat::clause_set", %class.svector.30, i32, %class.tracked_uint_set, i8, %"class.sat::tmp_clause", %class.svector.32, i32, i32, i8, i8, i8, i8, i32, i8, i8, i32, i8, i32, i8, i8, i32, i32, i32, i32, i32, i32, i32, i32, i32, i32, i8, i32, i8, i8, i32, i32, i32, i32, i32, i32, i32, i32, i32, i32, i32, i8, i32, %class.ptr_vector.28, %class.svector.2, %class.svector.34, %class.svector.34, %class.svector.2 }
%"class.sat::use_list" = type { %class.vector.26 }
%class.vector.26 = type { ptr }
%"class.sat::ext_use_list" = type { %class.vector.27 }
%class.vector.27 = type { ptr }
%"class.sat::clause_set" = type { %class.svector, %class.ptr_vector.28 }
%class.svector.30 = type { %class.vector.31 }
%class.vector.31 = type { ptr }
%class.tracked_uint_set = type { %class.svector.32, %class.svector }
%"class.sat::tmp_clause" = type { ptr }
%"class.sat::scc" = type { ptr, i8, i8, i32, i32, %"class.sat::big" }
%"class.sat::big" = type { ptr, i32, %class.vector.36, %class.svector.0, %class.svector.37, %class.svector.37, %class.svector.2, %class.svector.2, i8, i8, %class.vector.36 }
%class.svector.37 = type { %class.vector.38 }
%class.vector.38 = type { ptr }
%class.vector.36 = type { ptr }
%"class.sat::asymm_branch" = type { ptr, %class.params_ref, i64, %class.random_gen, i32, i32, i8, i32, i32, i8, i8, i64, i32, i32, i32, %class.svector.2, %class.svector.2, %class.svector.39, %class.svector.39, %class.svector.2, %class.svector.2 }
%class.svector.39 = type { %class.vector.40 }
%class.vector.40 = type { ptr }
%"class.sat::probing" = type { ptr, i32, %"class.sat::literal_set", %class.svector.2, i32, i8, i32, i8, i8, i64, i32, %class.vector.41, %class.svector.42, %"class.sat::big" }
%class.vector.41 = type { ptr }
%"class.sat::mus" = type <{ ptr, %class.svector.2, %class.svector.2, i8, [7 x i8], %class.svector.21, i32, [4 x i8] }>
%"class.sat::binspr" = type <{ ptr, %class.scoped_ptr, i32, i32, %class.vector.44, i32, i32, %class.svector.0, %class.svector.0, %class.svector.2, %class.svector.2, i32, i32, i32, i32, i32, [4 x i32], [5 x i32], [5 x i32], [4 x i8] }>
%class.vector.44 = type { ptr }
%"class.sat::justification" = type <{ i32, [4 x i8], i64, i32, [4 x i8] }>
%class.ptr_vector.28 = type { %class.vector.29 }
%class.vector.29 = type { ptr }
%class.vector.45 = type { ptr }
%class.svector.21 = type { %class.vector.22 }
%class.vector.22 = type { ptr }
%class.svector.46 = type { %class.vector.47 }
%class.vector.47 = type { ptr }
%"struct.sat::backoff" = type { i32, i32, i32, i32, i32 }
%class.var_queue = type { %class.heap }
%class.heap = type { %"struct.var_queue<svector<unsigned int>>::lt", %class.svector.37, %class.svector.37 }
%"struct.var_queue<svector<unsigned int>>::lt" = type { ptr }
%class.ema = type { double, double, double, i32, i32 }
%class.svector.34 = type { %class.vector.35 }
%class.vector.35 = type { ptr }
%"class.std::__cxx11::basic_string" = type { %"struct.std::__cxx11::basic_string<char>::_Alloc_hider", i64, %union.anon }
%"struct.std::__cxx11::basic_string<char>::_Alloc_hider" = type { ptr }
%union.anon = type { i64, [8 x i8] }
%class.visit_helper = type { %class.svector, i32, i32 }
%class.svector.50 = type { %class.vector.51 }
%class.vector.51 = type { ptr }
%class.scoped_limit_trail = type { %class.svector, i32, i32 }
%class.stopwatch = type <{ %"class.std::chrono::time_point", %"class.std::chrono::duration", i8, [7 x i8] }>
%"class.std::chrono::time_point" = type { %"class.std::chrono::duration" }
%"class.std::chrono::duration" = type { i64 }
%class.params_ref = type { ptr }
%"struct.sat::no_drat_params" = type { %class.params_ref }
%"class.sat::literal_set" = type { %class.tracked_uint_set }
%class.statistics = type { %class.svector.52, %class.svector.54 }
%class.svector.52 = type { %class.vector.53 }
%class.vector.53 = type { ptr }
%class.svector.54 = type { %class.vector.55 }
%class.vector.55 = type { ptr }
%class.svector.48 = type { %class.vector.49 }
%class.vector.49 = type { ptr }
%class.svector.32 = type { %class.vector.33 }
%class.vector.33 = type { ptr }
%class.approx_set_tpl = type { i32 }
%class.vector.20 = type { ptr }
%class.svector.42 = type { %class.vector.43 }
%class.vector.43 = type { ptr }
%class.u_map = type { %class.map }
%class.map = type { %class.table2map }
%class.table2map = type { %class.core_hashtable.56 }
%class.core_hashtable.56 = type <{ ptr, i32, i32, i32, [4 x i8] }>

; Function Attrs: mustprogress nounwind uwtable
define linkonce_odr hidden noundef ptr @_ZNK10scoped_ptrIN3sat6solverEEptEv(ptr noundef nonnull align 8 dereferenceable(8) %this) #4 comdat align 2 {
entry:
  %this.addr = alloca ptr, align 8
  store ptr %this, ptr %this.addr, align 8
  %this1 = load ptr, ptr %this.addr, align 8
  %m_ptr = getelementptr inbounds %class.scoped_ptr, ptr %this1, i32 0, i32 0
  %0 = load ptr, ptr %m_ptr, align 8
  ret ptr %0
}

; Function Attrs: mustprogress nounwind uwtable
define linkonce_odr hidden noundef ptr @_ZNK10scoped_ptrIN3sat6solverEE3getEv(ptr noundef nonnull align 8 dereferenceable(8) %this) #4 comdat align 2 {
entry:
  %this.addr = alloca ptr, align 8
  store ptr %this, ptr %this.addr, align 8
  %this1 = load ptr, ptr %this.addr, align 8
  %m_ptr = getelementptr inbounds %class.scoped_ptr, ptr %this1, i32 0, i32 0
  %0 = load ptr, ptr %m_ptr, align 8
  ret ptr %0
}

; Function Attrs: mustprogress nounwind uwtable
define linkonce_odr hidden noundef zeroext i1 @_ZNK10scoped_ptrIN3sat6solverEEcvbEv(ptr noundef nonnull align 8 dereferenceable(8) %this) #4 comdat align 2 {
entry:
  %this.addr = alloca ptr, align 8
  store ptr %this, ptr %this.addr, align 8
  %this1 = load ptr, ptr %this.addr, align 8
  %m_ptr = getelementptr inbounds %class.scoped_ptr, ptr %this1, i32 0, i32 0
  %0 = load ptr, ptr %m_ptr, align 8
  %cmp = icmp ne ptr %0, null
  ret i1 %cmp
}

; Function Attrs: mustprogress uwtable
define hidden noundef zeroext i1 @_ZN3sat8parallel12_from_solverERNS_14i_local_searchE(ptr noundef nonnull align 8 dereferenceable(176) %this, ptr noundef nonnull align 8 dereferenceable(8) %s) #5 align 2 {
entry:
  %this.addr = alloca ptr, align 8
  %s.addr = alloca ptr, align 8
  %copied = alloca i8, align 1
  store ptr %this, ptr %this.addr, align 8
  store ptr %s, ptr %s.addr, align 8
  %this1 = load ptr, ptr %this.addr, align 8
  store i8 0, ptr %copied, align 1
  %m_consumer_ready = getelementptr inbounds %"class.sat::parallel", ptr %this1, i32 0, i32 7
  store i8 1, ptr %m_consumer_ready, align 8
  %m_solver_copy = getelementptr inbounds %"class.sat::parallel", ptr %this1, i32 0, i32 6
  %call = call noundef zeroext i1 @_ZNK10scoped_ptrIN3sat6solverEEcvbEv(ptr noundef nonnull align 8 dereferenceable(8) %m_solver_copy)
  br i1 %call, label %if.then, label %if.end

if.then:                                          ; preds = %entry
  store i8 1, ptr %copied, align 1
  %0 = load ptr, ptr %s.addr, align 8
  %m_solver_copy2 = getelementptr inbounds %"class.sat::parallel", ptr %this1, i32 0, i32 6
  %call3 = call noundef ptr @_ZNK10scoped_ptrIN3sat6solverEE3getEv(ptr noundef nonnull align 8 dereferenceable(8) %m_solver_copy2)
  %m_solver_copy4 = getelementptr inbounds %"class.sat::parallel", ptr %this1, i32 0, i32 6
  %call5 = call noundef ptr @_ZNK10scoped_ptrIN3sat6solverEEptEv(ptr noundef nonnull align 8 dereferenceable(8) %m_solver_copy4)
  %m_best_phase = getelementptr inbounds %"class.sat::solver", ptr %call5, i32 0, i32 58
  %vtable = load ptr, ptr %0, align 8
  %vfn = getelementptr inbounds ptr, ptr %vtable, i64 6
  %1 = load ptr, ptr %vfn, align 8
  call void %1(ptr noundef nonnull align 8 dereferenceable(8) %0, ptr noundef nonnull align 8 dereferenceable(4408) %call3, ptr noundef nonnull align 8 dereferenceable(8) %m_best_phase)
  br label %if.end

if.end:                                           ; preds = %if.then, %entry
  %2 = load i8, ptr %copied, align 1
  %tobool = trunc i8 %2 to i1
  ret i1 %tobool
}