; Function Attrs: mustprogress uwtable
define hidden noundef zeroext i1 @_ZN3sat8parallel12_from_solverERNS_14i_local_searchE(ptr nocapture noundef nonnull align 8 dereferenceable(176) %this, ptr noundef nonnull align 8 dereferenceable(8) %s) local_unnamed_addr #4 align 2 {
entry:
  %m_consumer_ready = getelementptr inbounds i8, ptr %this, i64 128
  store i8 1, ptr %m_consumer_ready, align 8
  %m_solver_copy = getelementptr inbounds i8, ptr %this, i64 120
  %0 = load ptr, ptr %m_solver_copy, align 8
  %cmp.i = icmp ne ptr %0, null
  br i1 %cmp.i, label %if.then, label %if.end

if.then:                                          ; preds = %entry
  %m_best_phase = getelementptr inbounds i8, ptr %0, i64 3608
  %vtable = load ptr, ptr %s, align 8
  %vfn = getelementptr inbounds i8, ptr %vtable, i64 48
  %1 = load ptr, ptr %vfn, align 8
  tail call void %1(ptr noundef nonnull align 8 dereferenceable(8) %s, ptr noundef nonnull align 8 dereferenceable(4408) %0, ptr noundef nonnull align 8 dereferenceable(8) %m_best_phase)
  br label %if.end

if.end:                                           ; preds = %if.then, %entry
  ret i1 %cmp.i
}